; Function Attrs: mustprogress uwtable
define internal void @_ZN9grpc_core12_GLOBAL__N_18RingHash14ShutdownLockedEv(ptr noundef nonnull align 8 dereferenceable(153) %this) unnamed_addr #3 align 2 personality ptr @__gxx_personality_v0 {
entry:
  %0 = load atomic i8, ptr getelementptr inbounds (%"class.grpc_core::TraceFlag", ptr @_ZN9grpc_core23grpc_lb_ring_hash_traceE, i64 0, i32 2, i32 0, i32 0) monotonic, align 8
  %1 = and i8 %0, 1
  %tobool.i.i.i.not = icmp eq i8 %1, 0
  br i1 %tobool.i.i.i.not, label %if.end, label %if.then

if.then:                                          ; preds = %entry
  tail call void (ptr, i32, i32, ptr, ...) @gpr_log(ptr noundef nonnull @.str.13, i32 noundef 610, i32 noundef 1, ptr noundef nonnull @.str.48, ptr noundef nonnull %this)
  br label %if.end

if.end:                                           ; preds = %if.then, %entry
  %shutdown_ = getelementptr inbounds i8, ptr %this, i64 152
  store i8 1, ptr %shutdown_, align 8
  %2 = getelementptr inbounds i8, ptr %this, i64 112
  %this.val.i.i = load ptr, ptr %2, align 8
  invoke fastcc void @_ZNSt8_Rb_treeIN9grpc_core18EndpointAddressSetESt4pairIKS1_St10unique_ptrINS0_12_GLOBAL__N_18RingHash16RingHashEndpointENS0_16OrphanableDeleteEEESt10_Select1stISA_ESt4lessIS1_ESaISA_EE8_M_eraseEPSt13_Rb_tree_nodeISA_E(ptr noundef %this.val.i.i)
          to label %_ZNSt3mapIN9grpc_core18EndpointAddressSetESt10unique_ptrINS0_12_GLOBAL__N_18RingHash16RingHashEndpointENS0_16OrphanableDeleteEESt4lessIS1_ESaISt4pairIKS1_S7_EEE5clearEv.exit unwind label %terminate.lpad.i.i

terminate.lpad.i.i:                               ; preds = %if.end
  %3 = landingpad { ptr, i32 }
          catch ptr null
  %4 = extractvalue { ptr, i32 } %3, 0
  tail call void @__clang_call_terminate(ptr %4) #26
  unreachable

_ZNSt3mapIN9grpc_core18EndpointAddressSetESt10unique_ptrINS0_12_GLOBAL__N_18RingHash16RingHashEndpointENS0_16OrphanableDeleteEESt4lessIS1_ESaISt4pairIKS1_S7_EEE5clearEv.exit: ; preds = %if.end
  %add.ptr.i.i = getelementptr inbounds i8, ptr %this, i64 104
  store ptr null, ptr %2, align 8
  %_M_left.i.i.i = getelementptr inbounds i8, ptr %this, i64 120
  store ptr %add.ptr.i.i, ptr %_M_left.i.i.i, align 8
  %_M_right.i.i.i = getelementptr inbounds i8, ptr %this, i64 128
  store ptr %add.ptr.i.i, ptr %_M_right.i.i.i, align 8
  %_M_node_count.i.i.i = getelementptr inbounds i8, ptr %this, i64 136
  store i64 0, ptr %_M_node_count.i.i.i, align 8
  ret void
}